target datalayout = "e-m:e-p270:32:32-p271:32:32-p272:64:64-i64:64-i128:128-f80:128-n8:16:32:64-S128"
target triple = "x86_64-pc-linux-gnu"

%"class.absl::synchronization_internal::PthreadWaiter" = type { %union.pthread_mutex_t, %union.pthread_cond_t, i32, i32 }
%union.pthread_mutex_t = type { %struct.__pthread_mutex_s }
%struct.__pthread_mutex_s = type { i32, i32, i32, i32, i32, i16, i16, %struct.__pthread_internal_list }
%struct.__pthread_internal_list = type { ptr, ptr }
%union.pthread_cond_t = type { %struct.__pthread_cond_s }
%struct.__pthread_cond_s = type { %union.__atomic_wide_counter, %union.__atomic_wide_counter, [2 x i32], [2 x i32], i32, i32, [2 x i32] }
%union.__atomic_wide_counter = type { i64 }
%"class.absl::synchronization_internal::(anonymous namespace)::PthreadMutexHolder" = type { ptr }

@.str = private unnamed_addr constant [147 x i8] c"generated/home/dtcxzyw/WorkSpace/Projects/compilers/llvm-opt-benchmark/bench/abseil-cpp/abseil-cpp/absl/synchronization/internal/pthread_waiter.cc\00", align 1
@.str.5 = private unnamed_addr constant [31 x i8] c"pthread_cond_signal failed: %d\00", align 1
@.str.6 = private unnamed_addr constant [30 x i8] c"pthread_mutex_lock failed: %d\00", align 1

; Function Attrs: mustprogress uwtable
define dso_local void @_ZN4absl24synchronization_internal13PthreadWaiter19InternalCondVarPokeEv(ptr noundef nonnull align 8 dereferenceable(96) %0) #0 align 2 {
  %2 = alloca ptr, align 8
  %3 = alloca i32, align 4
  %4 = alloca ptr, align 8
  store ptr %0, ptr %2, align 8, !tbaa !4
  %5 = load ptr, ptr %2, align 8
  %6 = getelementptr inbounds nuw %"class.absl::synchronization_internal::PthreadWaiter", ptr %5, i32 0, i32 2
  %7 = load i32, ptr %6, align 8, !tbaa !9
  %8 = icmp ne i32 %7, 0
  br i1 %8, label %9, label %26

9:                                                ; preds = %1
  call void @llvm.lifetime.start.p0(i64 4, ptr %3) #8
  %10 = getelementptr inbounds nuw %"class.absl::synchronization_internal::PthreadWaiter", ptr %5, i32 0, i32 1
  %11 = call i32 @pthread_cond_signal(ptr noundef %10) #8
  store i32 %11, ptr %3, align 4, !tbaa !13
  %12 = load i32, ptr %3, align 4, !tbaa !13
  %13 = icmp ne i32 %12, 0
  %14 = zext i1 %13 to i64
  %15 = call i64 @llvm.expect.i64(i64 %14, i64 0)
  %16 = icmp ne i64 %15, 0
  br i1 %16, label %17, label %25

17:                                               ; preds = %9
  br label %18

18:                                               ; preds = %17
  call void @llvm.lifetime.start.p0(i64 8, ptr %4) #8
  store ptr getelementptr (i8, ptr @.str, i64 129), ptr %4, align 8, !tbaa !14
  %19 = load i32, ptr %3, align 4, !tbaa !13
  call void (i32, ptr, i32, ptr, ...) @_ZN4absl16raw_log_internal6RawLogENS_11LogSeverityEPKciS3_z(i32 noundef 3, ptr noundef getelementptr (i8, ptr @.str, i64 129), i32 noundef 158, ptr noundef @.str.5, i32 noundef %19)
  br label %20

20:                                               ; preds = %18
  unreachable

21:                                               ; No predecessors!
  br label %22

22:                                               ; preds = %21
  call void @llvm.lifetime.end.p0(i64 8, ptr %4) #8
  br label %23

23:                                               ; preds = %22
  br label %24

24:                                               ; preds = %23
  br label %25

25:                                               ; preds = %24, %9
  call void @llvm.lifetime.end.p0(i64 4, ptr %3) #8
  br label %26

26:                                               ; preds = %25, %1
  ret void
}

; Function Attrs: mustprogress uwtable
define internal void @_ZN4absl24synchronization_internal12_GLOBAL__N_118PthreadMutexHolderC2EP15pthread_mutex_t(ptr noundef nonnull align 8 dereferenceable(8) %0, ptr noundef %1) unnamed_addr #0 align 2 {
  %3 = alloca ptr, align 8
  %4 = alloca ptr, align 8
  %5 = alloca i32, align 4
  %6 = alloca ptr, align 8
  store ptr %0, ptr %3, align 8, !tbaa !29
  store ptr %1, ptr %4, align 8, !tbaa !31
  %7 = load ptr, ptr %3, align 8
  %8 = getelementptr inbounds nuw %"class.absl::synchronization_internal::(anonymous namespace)::PthreadMutexHolder", ptr %7, i32 0, i32 0
  %9 = load ptr, ptr %4, align 8, !tbaa !31
  store ptr %9, ptr %8, align 8, !tbaa !32
  call void @llvm.lifetime.start.p0(i64 4, ptr %5) #8
  %10 = getelementptr inbounds nuw %"class.absl::synchronization_internal::(anonymous namespace)::PthreadMutexHolder", ptr %7, i32 0, i32 0
  %11 = load ptr, ptr %10, align 8, !tbaa !32
  %12 = call i32 @pthread_mutex_lock(ptr noundef %11) #8
  store i32 %12, ptr %5, align 4, !tbaa !13
  %13 = load i32, ptr %5, align 4, !tbaa !13
  %14 = icmp ne i32 %13, 0
  br i1 %14, label %15, label %23

15:                                               ; preds = %2
  br label %16

16:                                               ; preds = %15
  call void @llvm.lifetime.start.p0(i64 8, ptr %6) #8
  store ptr getelementptr (i8, ptr @.str, i64 129), ptr %6, align 8, !tbaa !14
  %17 = load i32, ptr %5, align 4, !tbaa !13
  call void (i32, ptr, i32, ptr, ...) @_ZN4absl16raw_log_internal6RawLogENS_11LogSeverityEPKciS3_z(i32 noundef 3, ptr noundef getelementptr (i8, ptr @.str, i64 129), i32 noundef 42, ptr noundef @.str.6, i32 noundef %17)
  br label %18

18:                                               ; preds = %16
  unreachable

19:                                               ; No predecessors!
  br label %20

20:                                               ; preds = %19
  call void @llvm.lifetime.end.p0(i64 8, ptr %6) #8
  br label %21

21:                                               ; preds = %20
  br label %22

22:                                               ; preds = %21
  br label %23

23:                                               ; preds = %22, %2
  call void @llvm.lifetime.end.p0(i64 4, ptr %5) #8
  ret void
}

; Function Attrs: mustprogress uwtable
define dso_local void @_ZN4absl24synchronization_internal13PthreadWaiter4PokeEv(ptr noundef nonnull align 8 dereferenceable(96) %0) #0 align 2 personality ptr @__gxx_personality_v0 {
  %2 = alloca ptr, align 8
  %3 = alloca %"class.absl::synchronization_internal::(anonymous namespace)::PthreadMutexHolder", align 8
  %4 = alloca ptr, align 8
  %5 = alloca i32, align 4
  store ptr %0, ptr %2, align 8, !tbaa !4
  %6 = load ptr, ptr %2, align 8
  call void @llvm.lifetime.start.p0(i64 8, ptr %3) #8
  %7 = getelementptr inbounds nuw %"class.absl::synchronization_internal::PthreadWaiter", ptr %6, i32 0, i32 0
  call void @_ZN4absl24synchronization_internal12_GLOBAL__N_118PthreadMutexHolderC2EP15pthread_mutex_t(ptr noundef nonnull align 8 dereferenceable(8) %3, ptr noundef %7)
  invoke void @_ZN4absl24synchronization_internal13PthreadWaiter19InternalCondVarPokeEv(ptr noundef nonnull align 8 dereferenceable(96) %6)
          to label %8 unwind label %9

8:                                                ; preds = %1
  call void @_ZN4absl24synchronization_internal12_GLOBAL__N_118PthreadMutexHolderD2Ev(ptr noundef nonnull align 8 dereferenceable(8) %3) #8
  call void @llvm.lifetime.end.p0(i64 8, ptr %3) #8
  ret void

9:                                                ; preds = %1
  %10 = landingpad { ptr, i32 }
          cleanup
  %11 = extractvalue { ptr, i32 } %10, 0
  store ptr %11, ptr %4, align 8
  %12 = extractvalue { ptr, i32 } %10, 1
  store i32 %12, ptr %5, align 4
  call void @_ZN4absl24synchronization_internal12_GLOBAL__N_118PthreadMutexHolderD2Ev(ptr noundef nonnull align 8 dereferenceable(8) %3) #8
  call void @llvm.lifetime.end.p0(i64 8, ptr %3) #8
  br label %13

13:                                               ; preds = %9
  %14 = load ptr, ptr %4, align 8
  %15 = load i32, ptr %5, align 4
  %16 = insertvalue { ptr, i32 } poison, ptr %14, 0
  %17 = insertvalue { ptr, i32 } %16, i32 %15, 1
  resume { ptr, i32 } %17
}