; Function Attrs: mustprogress uwtable
define dso_local void @_ZN4absl24synchronization_internal13PthreadWaiter4PokeEv(ptr noundef nonnull align 8 dereferenceable(96) %0) local_unnamed_addr #0 align 2 personality ptr @__gxx_personality_v0 {
  %2 = tail call i32 @pthread_mutex_lock(ptr noundef nonnull %0) #7
  %.not.i = icmp eq i32 %2, 0
  br i1 %.not.i, label %_ZN4absl24synchronization_internal12_GLOBAL__N_118PthreadMutexHolderC2EP15pthread_mutex_t.exit, label %3

3:                                                ; preds = %1
  tail call void (i32, ptr, i32, ptr, ...) @_ZN4absl16raw_log_internal6RawLogENS_11LogSeverityEPKciS3_z(i32 noundef 3, ptr noundef nonnull getelementptr inbounds nuw (i8, ptr @.str, i64 129), i32 noundef 42, ptr noundef nonnull @.str.6, i32 noundef %2)
  unreachable

_ZN4absl24synchronization_internal12_GLOBAL__N_118PthreadMutexHolderC2EP15pthread_mutex_t.exit: ; preds = %1
  %4 = getelementptr inbounds nuw i8, ptr %0, i64 88
  %5 = load i32, ptr %4, align 8, !tbaa !4
  %.not.i3 = icmp eq i32 %5, 0
  br i1 %.not.i3, label %_ZN4absl24synchronization_internal13PthreadWaiter19InternalCondVarPokeEv.exit, label %6

6:                                                ; preds = %_ZN4absl24synchronization_internal12_GLOBAL__N_118PthreadMutexHolderC2EP15pthread_mutex_t.exit
  %7 = getelementptr inbounds nuw i8, ptr %0, i64 40
  %8 = tail call i32 @pthread_cond_signal(ptr noundef nonnull %7) #7
  %.not2.i = icmp eq i32 %8, 0
  br i1 %.not2.i, label %_ZN4absl24synchronization_internal13PthreadWaiter19InternalCondVarPokeEv.exit, label %9, !prof !12

9:                                                ; preds = %6
  invoke void (i32, ptr, i32, ptr, ...) @_ZN4absl16raw_log_internal6RawLogENS_11LogSeverityEPKciS3_z(i32 noundef 3, ptr noundef nonnull getelementptr inbounds nuw (i8, ptr @.str, i64 129), i32 noundef 158, ptr noundef nonnull @.str.5, i32 noundef %8)
          to label %.noexc unwind label %16

.noexc:                                           ; preds = %9
  unreachable

_ZN4absl24synchronization_internal13PthreadWaiter19InternalCondVarPokeEv.exit: ; preds = %6, %_ZN4absl24synchronization_internal12_GLOBAL__N_118PthreadMutexHolderC2EP15pthread_mutex_t.exit
  %10 = tail call i32 @pthread_mutex_unlock(ptr noundef nonnull %0) #7
  %.not.i4 = icmp eq i32 %10, 0
  br i1 %.not.i4, label %_ZN4absl24synchronization_internal12_GLOBAL__N_118PthreadMutexHolderD2Ev.exit, label %11

11:                                               ; preds = %_ZN4absl24synchronization_internal13PthreadWaiter19InternalCondVarPokeEv.exit
  invoke void (i32, ptr, i32, ptr, ...) @_ZN4absl16raw_log_internal6RawLogENS_11LogSeverityEPKciS3_z(i32 noundef 3, ptr noundef nonnull getelementptr inbounds nuw (i8, ptr @.str, i64 129), i32 noundef 52, ptr noundef nonnull @.str.7, i32 noundef %10)
          to label %12 unwind label %13

12:                                               ; preds = %11
  unreachable

13:                                               ; preds = %11
  %14 = landingpad { ptr, i32 }
          catch ptr null
  %15 = extractvalue { ptr, i32 } %14, 0
  tail call void @__clang_call_terminate(ptr %15) #8
  unreachable

_ZN4absl24synchronization_internal12_GLOBAL__N_118PthreadMutexHolderD2Ev.exit: ; preds = %_ZN4absl24synchronization_internal13PthreadWaiter19InternalCondVarPokeEv.exit
  ret void

16:                                               ; preds = %9
  %17 = landingpad { ptr, i32 }
          cleanup
  tail call fastcc void @_ZN4absl24synchronization_internal12_GLOBAL__N_118PthreadMutexHolderD2Ev(ptr nonnull %0) #7
  resume { ptr, i32 } %17
}